; Function Attrs: mustprogress uwtable
define void @_ZN6google8protobuf8internal11WriteVarintEjmPNSt7__cxx1112basic_stringIcSt11char_traitsIcESaIcEEE(i32 noundef %0, i64 noundef %1, ptr noundef %2) local_unnamed_addr #3 personality ptr @__gxx_personality_v0 {
  %4 = shl i32 %0, 3
  %5 = zext i32 %4 to i64
  %6 = icmp ugt i32 %4, 127
  br i1 %6, label %.lr.ph.i, label %._crit_edge.i

.lr.ph.i:                                         ; preds = %3
  %7 = getelementptr inbounds nuw i8, ptr %2, i64 8
  %8 = getelementptr inbounds nuw i8, ptr %2, i64 16
  br label %9

9:                                                ; preds = %_ZNSt7__cxx1112basic_stringIcSt11char_traitsIcESaIcEE9push_backEc.exit.i, %.lr.ph.i
  %.09.i = phi i64 [ %5, %.lr.ph.i ], [ %26, %_ZNSt7__cxx1112basic_stringIcSt11char_traitsIcESaIcEE9push_backEc.exit.i ]
  %10 = trunc i64 %.09.i to i8
  %11 = or i8 %10, -128
  %12 = load i64, ptr %7, align 8, !tbaa !34
  %13 = add i64 %12, 1
  %14 = load ptr, ptr %2, align 8, !tbaa !37
  %15 = icmp eq ptr %14, %8
  br i1 %15, label %16, label %_ZNKSt7__cxx1112basic_stringIcSt11char_traitsIcESaIcEE8capacityEv.exit.i.i

16:                                               ; preds = %9
  %17 = icmp ult i64 %12, 16
  tail call void @llvm.assume(i1 %17)
  br label %_ZNKSt7__cxx1112basic_stringIcSt11char_traitsIcESaIcEE8capacityEv.exit.i.i

_ZNKSt7__cxx1112basic_stringIcSt11char_traitsIcESaIcEE8capacityEv.exit.i.i: ; preds = %16, %9
  %18 = load i64, ptr %8, align 8
  %19 = select i1 %15, i64 15, i64 %18
  %20 = icmp ugt i64 %13, %19
  br i1 %20, label %21, label %_ZNSt7__cxx1112basic_stringIcSt11char_traitsIcESaIcEE9push_backEc.exit.i

21:                                               ; preds = %_ZNKSt7__cxx1112basic_stringIcSt11char_traitsIcESaIcEE8capacityEv.exit.i.i
  tail call void @_ZNSt7__cxx1112basic_stringIcSt11char_traitsIcESaIcEE9_M_mutateEmmPKcm(ptr noundef nonnull align 8 dereferenceable(32) %2, i64 noundef %12, i64 noundef 0, ptr noundef null, i64 noundef 1)
  %.pre.i.i = load ptr, ptr %2, align 8, !tbaa !37
  br label %_ZNSt7__cxx1112basic_stringIcSt11char_traitsIcESaIcEE9push_backEc.exit.i

_ZNSt7__cxx1112basic_stringIcSt11char_traitsIcESaIcEE9push_backEc.exit.i: ; preds = %21, %_ZNKSt7__cxx1112basic_stringIcSt11char_traitsIcESaIcEE8capacityEv.exit.i.i
  %22 = phi ptr [ %.pre.i.i, %21 ], [ %14, %_ZNKSt7__cxx1112basic_stringIcSt11char_traitsIcESaIcEE8capacityEv.exit.i.i ]
  %23 = getelementptr inbounds nuw i8, ptr %22, i64 %12
  store i8 %11, ptr %23, align 1, !tbaa !25
  store i64 %13, ptr %7, align 8, !tbaa !34
  %24 = load ptr, ptr %2, align 8, !tbaa !37
  %25 = getelementptr inbounds nuw i8, ptr %24, i64 %13
  store i8 0, ptr %25, align 1, !tbaa !25
  %26 = lshr i64 %.09.i, 7
  %27 = icmp samesign ugt i64 %.09.i, 16383
  br i1 %27, label %9, label %._crit_edge.i, !llvm.loop !47

._crit_edge.i:                                    ; preds = %_ZNSt7__cxx1112basic_stringIcSt11char_traitsIcESaIcEE9push_backEc.exit.i, %3
  %.0.lcssa.i = phi i64 [ %5, %3 ], [ %26, %_ZNSt7__cxx1112basic_stringIcSt11char_traitsIcESaIcEE9push_backEc.exit.i ]
  %28 = getelementptr inbounds nuw i8, ptr %2, i64 8
  %29 = load i64, ptr %28, align 8, !tbaa !34
  %30 = add i64 %29, 1
  %31 = load ptr, ptr %2, align 8, !tbaa !37
  %32 = getelementptr inbounds nuw i8, ptr %2, i64 16
  %33 = icmp eq ptr %31, %32
  br i1 %33, label %34, label %_ZNKSt7__cxx1112basic_stringIcSt11char_traitsIcESaIcEE8capacityEv.exit.i6.i

34:                                               ; preds = %._crit_edge.i
  %35 = icmp ult i64 %29, 16
  tail call void @llvm.assume(i1 %35)
  br label %_ZNKSt7__cxx1112basic_stringIcSt11char_traitsIcESaIcEE8capacityEv.exit.i6.i

_ZNKSt7__cxx1112basic_stringIcSt11char_traitsIcESaIcEE8capacityEv.exit.i6.i: ; preds = %34, %._crit_edge.i
  %36 = load i64, ptr %32, align 8
  %37 = select i1 %33, i64 15, i64 %36
  %38 = icmp ugt i64 %30, %37
  br i1 %38, label %39, label %_ZN6google8protobuf8internal11WriteVarintEmPNSt7__cxx1112basic_stringIcSt11char_traitsIcESaIcEEE.exit

39:                                               ; preds = %_ZNKSt7__cxx1112basic_stringIcSt11char_traitsIcESaIcEE8capacityEv.exit.i6.i
  tail call void @_ZNSt7__cxx1112basic_stringIcSt11char_traitsIcESaIcEE9_M_mutateEmmPKcm(ptr noundef nonnull align 8 dereferenceable(32) %2, i64 noundef %29, i64 noundef 0, ptr noundef null, i64 noundef 1)
  %.pre.i7.i = load ptr, ptr %2, align 8, !tbaa !37
  br label %_ZN6google8protobuf8internal11WriteVarintEmPNSt7__cxx1112basic_stringIcSt11char_traitsIcESaIcEEE.exit

_ZN6google8protobuf8internal11WriteVarintEmPNSt7__cxx1112basic_stringIcSt11char_traitsIcESaIcEEE.exit: ; preds = %_ZNKSt7__cxx1112basic_stringIcSt11char_traitsIcESaIcEE8capacityEv.exit.i6.i, %39
  %40 = phi ptr [ %.pre.i7.i, %39 ], [ %31, %_ZNKSt7__cxx1112basic_stringIcSt11char_traitsIcESaIcEE8capacityEv.exit.i6.i ]
  %41 = trunc nuw nsw i64 %.0.lcssa.i to i8
  %42 = getelementptr inbounds nuw i8, ptr %40, i64 %29
  store i8 %41, ptr %42, align 1, !tbaa !25
  store i64 %30, ptr %28, align 8, !tbaa !34
  %43 = load ptr, ptr %2, align 8, !tbaa !37
  %44 = getelementptr inbounds nuw i8, ptr %43, i64 %30
  store i8 0, ptr %44, align 1, !tbaa !25
  %45 = icmp ugt i64 %1, 127
  br i1 %45, label %.lr.ph.i7, label %._crit_edge.i3

.lr.ph.i7:                                        ; preds = %_ZN6google8protobuf8internal11WriteVarintEmPNSt7__cxx1112basic_stringIcSt11char_traitsIcESaIcEEE.exit, %_ZNSt7__cxx1112basic_stringIcSt11char_traitsIcESaIcEE9push_backEc.exit.i10
  %.09.i8 = phi i64 [ %62, %_ZNSt7__cxx1112basic_stringIcSt11char_traitsIcESaIcEE9push_backEc.exit.i10 ], [ %1, %_ZN6google8protobuf8internal11WriteVarintEmPNSt7__cxx1112basic_stringIcSt11char_traitsIcESaIcEEE.exit ]
  %46 = trunc i64 %.09.i8 to i8
  %47 = or i8 %46, -128
  %48 = load i64, ptr %28, align 8, !tbaa !34
  %49 = add i64 %48, 1
  %50 = load ptr, ptr %2, align 8, !tbaa !37
  %51 = icmp eq ptr %50, %32
  br i1 %51, label %52, label %_ZNKSt7__cxx1112basic_stringIcSt11char_traitsIcESaIcEE8capacityEv.exit.i.i9

52:                                               ; preds = %.lr.ph.i7
  %53 = icmp ult i64 %48, 16
  tail call void @llvm.assume(i1 %53)
  br label %_ZNKSt7__cxx1112basic_stringIcSt11char_traitsIcESaIcEE8capacityEv.exit.i.i9

_ZNKSt7__cxx1112basic_stringIcSt11char_traitsIcESaIcEE8capacityEv.exit.i.i9: ; preds = %52, %.lr.ph.i7
  %54 = load i64, ptr %32, align 8
  %55 = select i1 %51, i64 15, i64 %54
  %56 = icmp ugt i64 %49, %55
  br i1 %56, label %57, label %_ZNSt7__cxx1112basic_stringIcSt11char_traitsIcESaIcEE9push_backEc.exit.i10

57:                                               ; preds = %_ZNKSt7__cxx1112basic_stringIcSt11char_traitsIcESaIcEE8capacityEv.exit.i.i9
  tail call void @_ZNSt7__cxx1112basic_stringIcSt11char_traitsIcESaIcEE9_M_mutateEmmPKcm(ptr noundef nonnull align 8 dereferenceable(32) %2, i64 noundef %48, i64 noundef 0, ptr noundef null, i64 noundef 1)
  %.pre.i.i11 = load ptr, ptr %2, align 8, !tbaa !37
  br label %_ZNSt7__cxx1112basic_stringIcSt11char_traitsIcESaIcEE9push_backEc.exit.i10

_ZNSt7__cxx1112basic_stringIcSt11char_traitsIcESaIcEE9push_backEc.exit.i10: ; preds = %57, %_ZNKSt7__cxx1112basic_stringIcSt11char_traitsIcESaIcEE8capacityEv.exit.i.i9
  %58 = phi ptr [ %.pre.i.i11, %57 ], [ %50, %_ZNKSt7__cxx1112basic_stringIcSt11char_traitsIcESaIcEE8capacityEv.exit.i.i9 ]
  %59 = getelementptr inbounds nuw i8, ptr %58, i64 %48
  store i8 %47, ptr %59, align 1, !tbaa !25
  store i64 %49, ptr %28, align 8, !tbaa !34
  %60 = load ptr, ptr %2, align 8, !tbaa !37
  %61 = getelementptr inbounds nuw i8, ptr %60, i64 %49
  store i8 0, ptr %61, align 1, !tbaa !25
  %62 = lshr i64 %.09.i8, 7
  %63 = icmp ugt i64 %.09.i8, 16383
  br i1 %63, label %.lr.ph.i7, label %._crit_edge.i3, !llvm.loop !47

._crit_edge.i3:                                   ; preds = %_ZNSt7__cxx1112basic_stringIcSt11char_traitsIcESaIcEE9push_backEc.exit.i10, %_ZN6google8protobuf8internal11WriteVarintEmPNSt7__cxx1112basic_stringIcSt11char_traitsIcESaIcEEE.exit
  %.0.lcssa.i4 = phi i64 [ %1, %_ZN6google8protobuf8internal11WriteVarintEmPNSt7__cxx1112basic_stringIcSt11char_traitsIcESaIcEEE.exit ], [ %62, %_ZNSt7__cxx1112basic_stringIcSt11char_traitsIcESaIcEE9push_backEc.exit.i10 ]
  %64 = load i64, ptr %28, align 8, !tbaa !34
  %65 = add i64 %64, 1
  %66 = load ptr, ptr %2, align 8, !tbaa !37
  %67 = icmp eq ptr %66, %32
  br i1 %67, label %68, label %_ZNKSt7__cxx1112basic_stringIcSt11char_traitsIcESaIcEE8capacityEv.exit.i6.i5

68:                                               ; preds = %._crit_edge.i3
  %69 = icmp ult i64 %64, 16
  tail call void @llvm.assume(i1 %69)
  br label %_ZNKSt7__cxx1112basic_stringIcSt11char_traitsIcESaIcEE8capacityEv.exit.i6.i5

_ZNKSt7__cxx1112basic_stringIcSt11char_traitsIcESaIcEE8capacityEv.exit.i6.i5: ; preds = %68, %._crit_edge.i3
  %70 = load i64, ptr %32, align 8
  %71 = select i1 %67, i64 15, i64 %70
  %72 = icmp ugt i64 %65, %71
  br i1 %72, label %73, label %_ZN6google8protobuf8internal11WriteVarintEmPNSt7__cxx1112basic_stringIcSt11char_traitsIcESaIcEEE.exit12

73:                                               ; preds = %_ZNKSt7__cxx1112basic_stringIcSt11char_traitsIcESaIcEE8capacityEv.exit.i6.i5
  tail call void @_ZNSt7__cxx1112basic_stringIcSt11char_traitsIcESaIcEE9_M_mutateEmmPKcm(ptr noundef nonnull align 8 dereferenceable(32) %2, i64 noundef %64, i64 noundef 0, ptr noundef null, i64 noundef 1)
  %.pre.i7.i6 = load ptr, ptr %2, align 8, !tbaa !37
  br label %_ZN6google8protobuf8internal11WriteVarintEmPNSt7__cxx1112basic_stringIcSt11char_traitsIcESaIcEEE.exit12

_ZN6google8protobuf8internal11WriteVarintEmPNSt7__cxx1112basic_stringIcSt11char_traitsIcESaIcEEE.exit12: ; preds = %_ZNKSt7__cxx1112basic_stringIcSt11char_traitsIcESaIcEE8capacityEv.exit.i6.i5, %73
  %74 = phi ptr [ %.pre.i7.i6, %73 ], [ %66, %_ZNKSt7__cxx1112basic_stringIcSt11char_traitsIcESaIcEE8capacityEv.exit.i6.i5 ]
  %75 = trunc nuw nsw i64 %.0.lcssa.i4 to i8
  %76 = getelementptr inbounds nuw i8, ptr %74, i64 %64
  store i8 %75, ptr %76, align 1, !tbaa !25
  store i64 %65, ptr %28, align 8, !tbaa !34
  %77 = load ptr, ptr %2, align 8, !tbaa !37
  %78 = getelementptr inbounds nuw i8, ptr %77, i64 %65
  store i8 0, ptr %78, align 1, !tbaa !25
  ret void
}